; Function Attrs: mustprogress uwtable
define noundef nonnull align 8 dereferenceable(64) ptr @_ZNK6icu_7718RelativeDateFormat13toPatternDateERNS_13UnicodeStringER10UErrorCode(ptr noundef nonnull align 8 dereferenceable(456) %0, ptr noundef nonnull returned align 8 dereferenceable(64) %1, ptr noundef nonnull readonly align 4 captures(none) dereferenceable(4) %2) unnamed_addr #1 align 2 {
  %4 = load i32, ptr %2, align 4, !tbaa !38
  %5 = icmp slt i32 %4, 1
  br i1 %5, label %6, label %13

6:                                                ; preds = %3
  %7 = getelementptr inbounds nuw i8, ptr %1, i64 8
  %8 = load i16, ptr %7, align 8, !tbaa !37
  %9 = and i16 %8, 1
  %.not.i = icmp eq i16 %9, 0
  %10 = and i16 %8, 30
  %storemerge.i = select i1 %.not.i, i16 %10, i16 2
  store i16 %storemerge.i, ptr %7, align 8, !tbaa !37
  %11 = getelementptr inbounds nuw i8, ptr %0, i64 56
  %12 = tail call noundef nonnull align 8 dereferenceable(64) ptr @_ZN6icu_7713UnicodeString8copyFromERKS0_a(ptr noundef nonnull align 8 dereferenceable(64) %1, ptr noundef nonnull align 8 dereferenceable(64) %11, i8 noundef signext 0)
  br label %13

13:                                               ; preds = %6, %3
  ret ptr %1
}